target datalayout = "e-m:e-p270:32:32-p271:32:32-p272:64:64-i64:64-i128:128-f80:128-n8:16:32:64-S128"
target triple = "x86_64-pc-linux-gnu"

%"class.std::__cxx11::basic_string" = type { %"struct.std::__cxx11::basic_string<char>::_Alloc_hider", i64, %union.anon.0 }
%"struct.std::__cxx11::basic_string<char>::_Alloc_hider" = type { ptr }
%union.anon.0 = type { i64, [8 x i8] }
%"class.LIEF::DEX::Field" = type <{ %"class.LIEF::Object", %"class.std::__cxx11::basic_string", ptr, ptr, i32, i32, i8, [7 x i8] }>
%"class.LIEF::Object" = type { ptr }

@_ZTVN4LIEF3DEX5FieldE = unnamed_addr constant { [7 x ptr] } { [7 x ptr] [ptr null, ptr @_ZTIN4LIEF3DEX5FieldE, ptr @_ZNK4LIEF6ObjecteqERKS0_, ptr @_ZNK4LIEF6ObjectneERKS0_, ptr @_ZN4LIEF3DEX5FieldD1Ev, ptr @_ZN4LIEF3DEX5FieldD0Ev, ptr @_ZNK4LIEF3DEX5Field6acceptERNS_7VisitorE] }, align 8

; Function Attrs: mustprogress uwtable
define void @_ZN4LIEF3DEX5FieldC2Ev(ptr noundef nonnull align 8 dereferenceable(65) %0) unnamed_addr #3 align 2 {
  %2 = alloca ptr, align 8
  store ptr %0, ptr %2, align 8
  %3 = load ptr, ptr %2, align 8
  call void @_ZN4LIEF6ObjectC2Ev(ptr noundef nonnull align 8 dereferenceable(8) %3)
  store ptr getelementptr inbounds ({ [7 x ptr] }, ptr @_ZTVN4LIEF3DEX5FieldE, i32 0, i32 0, i32 2), ptr %3, align 8
  %4 = getelementptr inbounds %"class.LIEF::DEX::Field", ptr %3, i32 0, i32 1
  call void @_ZNSt7__cxx1112basic_stringIcSt11char_traitsIcESaIcEEC1Ev(ptr noundef nonnull align 8 dereferenceable(32) %4) #14
  %5 = getelementptr inbounds %"class.LIEF::DEX::Field", ptr %3, i32 0, i32 2
  store ptr null, ptr %5, align 8
  %6 = getelementptr inbounds %"class.LIEF::DEX::Field", ptr %3, i32 0, i32 3
  store ptr null, ptr %6, align 8
  %7 = getelementptr inbounds %"class.LIEF::DEX::Field", ptr %3, i32 0, i32 4
  store i32 0, ptr %7, align 8
  %8 = getelementptr inbounds %"class.LIEF::DEX::Field", ptr %3, i32 0, i32 5
  store i32 -1, ptr %8, align 4
  %9 = getelementptr inbounds %"class.LIEF::DEX::Field", ptr %3, i32 0, i32 6
  store i8 0, ptr %9, align 8
  ret void
}