; Function Attrs: mustprogress uwtable
define void @_ZN4LIEF3DEX5FieldC2Ev(ptr noundef nonnull align 8 dereferenceable(65) %0) unnamed_addr #2 align 2 {
  tail call void @_ZN4LIEF6ObjectC2Ev(ptr noundef nonnull align 8 dereferenceable(8) %0)
  store ptr getelementptr inbounds ({ [7 x ptr] }, ptr @_ZTVN4LIEF3DEX5FieldE, i64 0, i32 0, i64 2), ptr %0, align 8
  %2 = getelementptr inbounds i8, ptr %0, i64 8
  tail call void @_ZNSt7__cxx1112basic_stringIcSt11char_traitsIcESaIcEEC1Ev(ptr noundef nonnull align 8 dereferenceable(32) %2) #18
  %3 = getelementptr inbounds i8, ptr %0, i64 40
  %4 = getelementptr inbounds i8, ptr %0, i64 60
  tail call void @llvm.memset.p0.i64(ptr noundef nonnull align 8 dereferenceable(20) %3, i8 0, i64 20, i1 false)
  store i32 -1, ptr %4, align 4
  %5 = getelementptr inbounds i8, ptr %0, i64 64
  store i8 0, ptr %5, align 8
  ret void
}